target datalayout = "e-m:e-p270:32:32-p271:32:32-p272:64:64-i64:64-i128:128-f80:128-n8:16:32:64-S128"
target triple = "x86_64-pc-linux-gnu"

%struct.ARKodeMemRec = type { ptr, double, ptr, i32, i32, double, double, ptr, i32, double, ptr, i32, i32, ptr, ptr, i32, ptr, ptr, i32, ptr, ptr, ptr, ptr, ptr, ptr, ptr, ptr, ptr, ptr, ptr, ptr, ptr, ptr, ptr, i32, ptr, ptr, i32, ptr, i32, ptr, ptr, ptr, ptr, ptr, ptr, ptr, ptr, ptr, ptr, ptr, ptr, ptr, ptr, ptr, ptr, ptr, ptr, ptr, ptr, ptr, ptr, ptr, ptr, ptr, ptr, i32, ptr, ptr, ptr, ptr, ptr, ptr, ptr, i32, ptr, ptr, ptr, i32, ptr, ptr, ptr, ptr, ptr, ptr, ptr, i32, i32, i32, i32, double, double, double, double, double, double, double, double, double, double, i32, ptr, i64, i32, i32, i32, i32, i64, i64, i32, i64, i64, i64, i64, i64, i64, i64, double, double, double, double, double, i32, double, double, i32, i32, i32, i32, i32, i32, i32, i32, ptr, i32, ptr, ptr, ptr, ptr, i32, i32, i32 }

; Function Attrs: nounwind uwtable
define i32 @arkEwtSetSS(ptr noundef %0, ptr noundef %1, ptr noundef %2) #0 {
  %4 = alloca i32, align 4
  %5 = alloca ptr, align 8
  %6 = alloca ptr, align 8
  %7 = alloca ptr, align 8
  %8 = alloca ptr, align 8
  %9 = alloca i32, align 4
  store ptr %0, ptr %5, align 8, !tbaa !7
  store ptr %1, ptr %6, align 8, !tbaa !7
  store ptr %2, ptr %7, align 8, !tbaa !3
  call void @llvm.lifetime.start.p0(i64 8, ptr %8) #10
  %10 = load ptr, ptr %7, align 8, !tbaa !3
  store ptr %10, ptr %8, align 8, !tbaa !11
  %11 = load ptr, ptr %5, align 8, !tbaa !7
  %12 = load ptr, ptr %8, align 8, !tbaa !11
  %13 = getelementptr inbounds nuw %struct.ARKodeMemRec, ptr %12, i32 0, i32 79
  %14 = load ptr, ptr %13, align 8, !tbaa !85
  call void @N_VAbs(ptr noundef %11, ptr noundef %14)
  %15 = load ptr, ptr %8, align 8, !tbaa !11
  %16 = getelementptr inbounds nuw %struct.ARKodeMemRec, ptr %15, i32 0, i32 5
  %17 = load double, ptr %16, align 8, !tbaa !79
  %18 = load ptr, ptr %8, align 8, !tbaa !11
  %19 = getelementptr inbounds nuw %struct.ARKodeMemRec, ptr %18, i32 0, i32 79
  %20 = load ptr, ptr %19, align 8, !tbaa !85
  %21 = load ptr, ptr %8, align 8, !tbaa !11
  %22 = getelementptr inbounds nuw %struct.ARKodeMemRec, ptr %21, i32 0, i32 79
  %23 = load ptr, ptr %22, align 8, !tbaa !85
  call void @N_VScale(double noundef %17, ptr noundef %20, ptr noundef %23)
  %24 = load ptr, ptr %8, align 8, !tbaa !11
  %25 = getelementptr inbounds nuw %struct.ARKodeMemRec, ptr %24, i32 0, i32 79
  %26 = load ptr, ptr %25, align 8, !tbaa !85
  %27 = load ptr, ptr %8, align 8, !tbaa !11
  %28 = getelementptr inbounds nuw %struct.ARKodeMemRec, ptr %27, i32 0, i32 6
  %29 = load double, ptr %28, align 8, !tbaa !80
  %30 = load ptr, ptr %8, align 8, !tbaa !11
  %31 = getelementptr inbounds nuw %struct.ARKodeMemRec, ptr %30, i32 0, i32 79
  %32 = load ptr, ptr %31, align 8, !tbaa !85
  call void @N_VAddConst(ptr noundef %26, double noundef %29, ptr noundef %32)
  %33 = load ptr, ptr %8, align 8, !tbaa !11
  %34 = getelementptr inbounds nuw %struct.ARKodeMemRec, ptr %33, i32 0, i32 8
  %35 = load i32, ptr %34, align 8, !tbaa !78
  %36 = icmp ne i32 %35, 0
  br i1 %36, label %37, label %45

37:                                               ; preds = %3
  %38 = load ptr, ptr %8, align 8, !tbaa !11
  %39 = getelementptr inbounds nuw %struct.ARKodeMemRec, ptr %38, i32 0, i32 79
  %40 = load ptr, ptr %39, align 8, !tbaa !85
  %41 = call double @N_VMin(ptr noundef %40)
  %42 = fcmp ole double %41, 0.000000e+00
  br i1 %42, label %43, label %44

43:                                               ; preds = %37
  store i32 -1, ptr %4, align 4
  store i32 1, ptr %9, align 4
  br label %50

44:                                               ; preds = %37
  br label %45

45:                                               ; preds = %44, %3
  %46 = load ptr, ptr %8, align 8, !tbaa !11
  %47 = getelementptr inbounds nuw %struct.ARKodeMemRec, ptr %46, i32 0, i32 79
  %48 = load ptr, ptr %47, align 8, !tbaa !85
  %49 = load ptr, ptr %6, align 8, !tbaa !7
  call void @N_VInv(ptr noundef %48, ptr noundef %49)
  store i32 0, ptr %4, align 4
  store i32 1, ptr %9, align 4
  br label %50

50:                                               ; preds = %45, %43
  call void @llvm.lifetime.end.p0(i64 8, ptr %8) #10
  %51 = load i32, ptr %4, align 4
  ret i32 %51
}