; Function Attrs: nounwind uwtable
define range(i32 -1, 1) i32 @arkEwtSetSS(ptr noundef %0, ptr noundef %1, ptr noundef readonly captures(none) %2) #0 {
  %4 = getelementptr inbounds nuw i8, ptr %2, i64 616
  %5 = load ptr, ptr %4, align 8, !tbaa !91
  tail call void @N_VAbs(ptr noundef %0, ptr noundef %5) #16
  %6 = getelementptr inbounds nuw i8, ptr %2, i64 32
  %7 = load double, ptr %6, align 8, !tbaa !85
  %8 = load ptr, ptr %4, align 8, !tbaa !91
  tail call void @N_VScale(double noundef %7, ptr noundef %8, ptr noundef %8) #16
  %9 = load ptr, ptr %4, align 8, !tbaa !91
  %10 = getelementptr inbounds nuw i8, ptr %2, i64 40
  %11 = load double, ptr %10, align 8, !tbaa !86
  tail call void @N_VAddConst(ptr noundef %9, double noundef %11, ptr noundef %9) #16
  %12 = getelementptr inbounds nuw i8, ptr %2, i64 56
  %13 = load i32, ptr %12, align 8, !tbaa !84
  %.not = icmp eq i32 %13, 0
  br i1 %.not, label %18, label %14

14:                                               ; preds = %3
  %15 = load ptr, ptr %4, align 8, !tbaa !91
  %16 = tail call double @N_VMin(ptr noundef %15) #16
  %17 = fcmp ugt double %16, 0.000000e+00
  br i1 %17, label %18, label %20

18:                                               ; preds = %14, %3
  %19 = load ptr, ptr %4, align 8, !tbaa !91
  tail call void @N_VInv(ptr noundef %19, ptr noundef %1) #16
  br label %20

20:                                               ; preds = %14, %18
  %.0 = phi i32 [ 0, %18 ], [ -1, %14 ]
  ret i32 %.0
}